; ModuleID = '45/2593.c'
source_filename = "45/2593.c"
target datalayout = "e-m:e-p270:32:32-p271:32:32-p272:64:64-i64:64-f80:128-n8:16:32:64-S128"
target triple = "x86_64-pc-linux-gnu"

@.str = private unnamed_addr constant [6 x i8] c"%s %s\00", align 1
@.str.1 = private unnamed_addr constant [3 x i8] c"%d\00", align 1

; Function Attrs: noinline nounwind uwtable
define dso_local i32 @main() #0 {
  %1 = alloca i32, align 4
  %2 = alloca [100 x i8], align 16
  %3 = alloca [100 x i8], align 16
  %4 = alloca i32, align 4
  %5 = alloca i32, align 4
  %6 = alloca i32, align 4
  %7 = alloca i32, align 4
  %8 = alloca i32, align 4
  %9 = alloca i32, align 4
  store i32 0, i32* %1, align 4
  %10 = bitcast [100 x i8]* %2 to i8*
  call void @llvm.memset.p0i8.i64(i8* align 16 %10, i8 0, i64 100, i1 false)
  %11 = bitcast [100 x i8]* %3 to i8*
  call void @llvm.memset.p0i8.i64(i8* align 16 %11, i8 0, i64 100, i1 false)
  store i32 0, i32* %9, align 4
  %12 = getelementptr inbounds [100 x i8], [100 x i8]* %2, i64 0, i64 0
  %13 = getelementptr inbounds [100 x i8], [100 x i8]* %3, i64 0, i64 0
  %14 = call i32 (i8*, ...) @__isoc99_scanf(i8* getelementptr inbounds ([6 x i8], [6 x i8]* @.str, i64 0, i64 0), i8* %12, i8* %13)
  %15 = getelementptr inbounds [100 x i8], [100 x i8]* %2, i64 0, i64 0
  %16 = call i64 @strlen(i8* %15) #4
  %17 = trunc i64 %16 to i32
  store i32 %17, i32* %4, align 4
  %18 = getelementptr inbounds [100 x i8], [100 x i8]* %3, i64 0, i64 0
  %19 = call i64 @strlen(i8* %18) #4
  %20 = trunc i64 %19 to i32
  store i32 %20, i32* %5, align 4
  store i32 0, i32* %6, align 4
  br label %21

21:                                               ; preds = %78, %0
  %22 = load i32, i32* %6, align 4
  %23 = load i32, i32* %5, align 4
  %24 = icmp slt i32 %22, %23
  br i1 %24, label %25, label %81

25:                                               ; preds = %21
  %26 = load i32, i32* %6, align 4
  %27 = sext i32 %26 to i64
  %28 = getelementptr inbounds [100 x i8], [100 x i8]* %3, i64 0, i64 %27
  %29 = load i8, i8* %28, align 1
  %30 = sext i8 %29 to i32
  %31 = getelementptr inbounds [100 x i8], [100 x i8]* %2, i64 0, i64 0
  %32 = load i8, i8* %31, align 16
  %33 = sext i8 %32 to i32
  %34 = icmp eq i32 %30, %33
  br i1 %34, label %35, label %70

35:                                               ; preds = %25
  %36 = load i32, i32* %6, align 4
  store i32 %36, i32* %7, align 4
  store i32 0, i32* %8, align 4
  br label %37

37:                                               ; preds = %64, %35
  %38 = load i32, i32* %7, align 4
  %39 = load i32, i32* %6, align 4
  %40 = load i32, i32* %4, align 4
  %41 = add nsw i32 %39, %40
  %42 = icmp sle i32 %38, %41
  %43 = zext i1 %42 to i32
  %44 = load i32, i32* %8, align 4
  %45 = load i32, i32* %4, align 4
  %46 = sub nsw i32 %45, 1
  %47 = icmp sle i32 %44, %46
  br i1 %47, label %48, label %69

48:                                               ; preds = %37
  %49 = load i32, i32* %7, align 4
  %50 = sext i32 %49 to i64
  %51 = getelementptr inbounds [100 x i8], [100 x i8]* %3, i64 0, i64 %50
  %52 = load i8, i8* %51, align 1
  %53 = sext i8 %52 to i32
  %54 = load i32, i32* %8, align 4
  %55 = sext i32 %54 to i64
  %56 = getelementptr inbounds [100 x i8], [100 x i8]* %2, i64 0, i64 %55
  %57 = load i8, i8* %56, align 1
  %58 = sext i8 %57 to i32
  %59 = icmp eq i32 %53, %58
  br i1 %59, label %60, label %63

60:                                               ; preds = %48
  %61 = load i32, i32* %9, align 4
  %62 = add nsw i32 %61, 1
  store i32 %62, i32* %9, align 4
  br label %63

63:                                               ; preds = %60, %48
  br label %64

64:                                               ; preds = %63
  %65 = load i32, i32* %7, align 4
  %66 = add nsw i32 %65, 1
  store i32 %66, i32* %7, align 4
  %67 = load i32, i32* %8, align 4
  %68 = add nsw i32 %67, 1
  store i32 %68, i32* %8, align 4
  br label %37

69:                                               ; preds = %37
  br label %70

70:                                               ; preds = %69, %25
  %71 = load i32, i32* %9, align 4
  %72 = load i32, i32* %4, align 4
  %73 = icmp eq i32 %71, %72
  br i1 %73, label %74, label %77

74:                                               ; preds = %70
  %75 = load i32, i32* %6, align 4
  %76 = call i32 (i8*, ...) @printf(i8* getelementptr inbounds ([3 x i8], [3 x i8]* @.str.1, i64 0, i64 0), i32 %75)
  br label %81

77:                                               ; preds = %70
  br label %78

78:                                               ; preds = %77
  %79 = load i32, i32* %6, align 4
  %80 = add nsw i32 %79, 1
  store i32 %80, i32* %6, align 4
  br label %21

81:                                               ; preds = %74, %21
  ret i32 0
}

; Function Attrs: argmemonly nounwind willreturn
declare void @llvm.memset.p0i8.i64(i8* nocapture writeonly, i8, i64, i1 immarg) #1

declare dso_local i32 @__isoc99_scanf(i8*, ...) #2

; Function Attrs: nounwind readonly
declare dso_local i64 @strlen(i8*) #3

declare dso_local i32 @printf(i8*, ...) #2


!llvm.module.flags = !{!0}
!llvm.ident = !{!1}

!0 = !{i32 1, !"wchar_size", i32 4}
!1 = !{!"clang version 10.0.0-4ubuntu1 "}
